; Function Attrs: nounwind uwtable
define ptr @l_Lean_Meta_SynthInstance_isNewAnswer___boxed(ptr noundef %0, ptr noundef %1) local_unnamed_addr #1 {
  %3 = getelementptr i8, ptr %0, i64 8
  %.val.i = load i64, ptr %3, align 8, !tbaa !12
  %.mask.i = and i64 %.val.i, 9223372036854775807
  %.not.i8 = icmp eq i64 %.mask.i, 0
  br i1 %.not.i8, label %l_Lean_Meta_SynthInstance_isNewAnswer.exit, label %lean_dec.exit.i

lean_dec.exit.i:                                  ; preds = %2
  %4 = tail call zeroext i8 @l_Array_anyMUnsafe_any___at_Lean_Meta_SynthInstance_isNewAnswer___spec__1(ptr noundef readonly %1, ptr noundef nonnull readonly %0, i64 noundef 0, i64 noundef %.mask.i)
  %..i = shl nuw nsw i8 %4, 1
  %5 = xor i8 %..i, 3
  %6 = zext nneg i8 %5 to i64
  br label %l_Lean_Meta_SynthInstance_isNewAnswer.exit

l_Lean_Meta_SynthInstance_isNewAnswer.exit:       ; preds = %2, %lean_dec.exit.i
  %.0.i = phi i64 [ %6, %lean_dec.exit.i ], [ 3, %2 ]
  %7 = ptrtoint ptr %1 to i64
  %8 = and i64 %7, 1
  %.not = icmp eq i64 %8, 0
  br i1 %.not, label %9, label %lean_dec.exit5

9:                                                ; preds = %l_Lean_Meta_SynthInstance_isNewAnswer.exit
  %10 = load i32, ptr %1, align 4, !tbaa !4
  %11 = icmp sgt i32 %10, 1
  br i1 %11, label %12, label %14, !prof !11

12:                                               ; preds = %9
  %13 = add nsw i32 %10, -1
  store i32 %13, ptr %1, align 4, !tbaa !4
  br label %lean_dec.exit5

14:                                               ; preds = %9
  %.not.i = icmp eq i32 %10, 0
  br i1 %.not.i, label %lean_dec.exit5, label %15

15:                                               ; preds = %14
  tail call void @lean_dec_ref_cold(ptr noundef nonnull %1) #7
  br label %lean_dec.exit5

lean_dec.exit5:                                   ; preds = %15, %14, %12, %l_Lean_Meta_SynthInstance_isNewAnswer.exit
  %16 = ptrtoint ptr %0 to i64
  %17 = and i64 %16, 1
  %.not9 = icmp eq i64 %17, 0
  br i1 %.not9, label %18, label %lean_dec.exit

18:                                               ; preds = %lean_dec.exit5
  %19 = load i32, ptr %0, align 4, !tbaa !4
  %20 = icmp sgt i32 %19, 1
  br i1 %20, label %21, label %23, !prof !11

21:                                               ; preds = %18
  %22 = add nsw i32 %19, -1
  store i32 %22, ptr %0, align 4, !tbaa !4
  br label %lean_dec.exit

23:                                               ; preds = %18
  %.not.i6 = icmp eq i32 %19, 0
  br i1 %.not.i6, label %lean_dec.exit, label %24

24:                                               ; preds = %23
  tail call void @lean_dec_ref_cold(ptr noundef nonnull %0) #7
  br label %lean_dec.exit

lean_dec.exit:                                    ; preds = %24, %23, %21, %lean_dec.exit5
  %25 = inttoptr i64 %.0.i to ptr
  ret ptr %25
}